(dp1
S'output'
p2
S''
sS'layer'
p3
S'/home/uolter/pycode/web2py_1.90.3/applications/modify_headers/views/default/index.html'
p4
sS'code'
p5
S'response.write(\'<!DOCTYPE html>\\n<html lang="\', escape=False)\nresponse.write(T.accepted_language or \'en\')\nresponse.write(\'" class="no-js"><!-- no-js need it for modernzr -->\\n  <head>\\n    \\n    <meta charset="utf-8" />\\t  \\t\\n    <!-- www.phpied.com/conditional-comments-block-downloads/ -->\\n    <!--[if IE]><![endif]-->    \\n    <!-- Always force latest IE rendering engine \\n\\t (even in intranet) & Chrome Frame \\n\\t Remove this if you use the .htaccess -->\\n    <meta http-equiv="X-UA-Compatible" content="IE=edge,chrome=1">\\n    \\n    <title>\', escape=False)\nresponse.write(T(\'Proxy Headers\'))\nresponse.write(\'</title>\\n    \\n    <!-- http://dev.w3.org/html5/markup/meta.name.html -->\\n    <meta name="application-name" content="\', escape=False)\nresponse.write(request.application)\nresponse.write(\'" />\\t\\n    \\n    <!-- Speaking of Google, don\\\'t forget to set your site up: \\n\\t http://google.com/webmasters -->\\n    <meta name="google-site-verification" content="" />\\n    \\n    <!--  Mobile Viewport Fix\\n\\t  j.mp/mobileviewport & davidbcalhoun.com/2010/viewport-metatag \\n\\t  device-width: Occupy full width of the screen in its current orientation\\n\\t  initial-scale = 1.0 retains dimensions instead of zooming out if page height > device height\\n\\t  maximum-scale = 1.0 retains dimensions instead of zooming in if page width < device width\\n      -->\\n    <meta name="viewport" content="width=device-width; initial-scale=1.0; maximum-scale=1.0;">\\n    \\n    <!-- Place favicon.ico and apple-touch-icon.png in the root of your domain and delete these references -->\\n    <link rel="shortcut icon" href="\', escape=False)\nresponse.write(URL(\'static\',\'favicon.ico\'))\nresponse.write(\'" type="image/x-icon">\\n    <link rel="apple-touch-icon" href="\', escape=False)\nresponse.write(URL(\'static\',\'favicon.png\'))\nresponse.write(\'">\\n\\n    <!-- For the less-enabled mobile browsers like Opera Mini -->\\n    <link rel="stylesheet" media="handheld" href="\', escape=False)\nresponse.write(URL(\'static\',\'css/handheld.css\'))\nresponse.write(\'">\\n    \\n    <!-- All JavaScript at the bottom, except for Modernizr which enables HTML5 elements & feature detects -->\\n    <script src="\', escape=False)\nresponse.write(URL(\'static\',\'js/modernizr-1.6.min.js\'))\nresponse.write(\'"></script>\\n    \\n    \', escape=False)\n#------  require CSS and JS files for this page (read info in base.css) ------\nresponse.write(\'\\n    \', escape=False)\nresponse.files.append(URL(\'static\',\'css/base.css\'))\nresponse.write(\'\\n    \', escape=False)\nresponse.files.append(URL(\'static\',\'css/superfish.css\'))\nresponse.write(\'\\n    \', escape=False)\nresponse.files.append(URL(\'static\',\'js/superfish.js\'))\nresponse.write(\'\\n    \', escape=False)\n#------ include web2py specific js code (jquery, calendar, form stuff) ------\nresponse.write(\'\\n    \', escape=False)\nresponse.files.insert(0,URL(\'static\',\'js/jquery.js\'))\nresponse.files.insert(1,URL(\'static\',\'css/calendar.css\'))\nresponse.files.insert(2,URL(\'static\',\'js/calendar.js\'))\nfor _item in response.meta or []:\n    response.write(\'\\n     <meta name="\', escape=False)\n    response.write(_item)\n    response.write(\'" content="\', escape=False)\n    response.write(response.meta[_item])\n    response.write(\'" />\', escape=False)\n    pass\nfor _k,_file in enumerate(response.files or []):\n    if _file in response.files[:_k]:\n        continue\n    _file0=_file.lower().split(\'?\')[0]\n    if _file0.endswith(\'.css\'):\n        response.write(\'\\n     <link href="\', escape=False)\n        response.write(_file)\n        response.write(\'" rel="stylesheet" type="text/css" />\', escape=False)\n    elif _file0.endswith(\'.js\'):\n        response.write(\'\\n     <script src="\', escape=False)\n        response.write(_file)\n        response.write(\'" type="text/javascript"></script>\', escape=False)\n        pass\n    pass\nresponse.write(\'\\n  \\n<script type="text/javascript"><!--\\nfunction popup(url) {\\n  newwindow=window.open(url,\\\'name\\\',\\\'height=400,width=600\\\');\\n  if (window.focus) newwindow.focus();\\n  return false;\\n}\\nfunction collapse(id) { jQuery(\\\'#\\\'+id).slideToggle(); }\\nfunction fade(id,value) { if(value>0) jQuery(\\\'#\\\'+id).hide().fadeIn(\\\'slow\\\'); else jQuery(\\\'#\\\'+id).show().fadeOut(\\\'slow\\\'); }\\nfunction ajax(u,s,t) {\\n    query = \\\'\\\';\\n    if (typeof s == "string") {\\n        d = jQuery(s).serialize();\\n        if(d){ query = d; }\\n    } else {\\n        pcs = [];\\n        for(i=0; i<s.length; i++) {\\n            q = jQuery("[name="+s[i]+"]").serialize();\\n            if(q){pcs.push(q);}\\n        }\\n        if (pcs.length>0){query = pcs.join("&");}\\n    }\\n    jQuery.ajax({type: "POST", url: u, data: query, success: function(msg) { if(t) { if(t==\\\':eval\\\') eval(msg); else jQuery("#" + t).html(msg); } } }); \\n}\\n\\nString.prototype.reverse = function () { return this.split(\\\'\\\').reverse().join(\\\'\\\');};\\nfunction web2py_ajax_init() {\\n  jQuery(\\\'.hidden\\\').hide();\\n  jQuery(\\\'.error\\\').hide().slideDown(\\\'slow\\\');\\n  jQuery(\\\'.flash\\\').click(function() { jQuery(this).fadeOut(\\\'slow\\\'); return false; });\\n  // jQuery(\\\'input[type=submit]\\\').click(function(){var t=jQuery(this);t.hide();t.after(\\\'<input class="submit_disabled" disabled="disabled" type="submit" name="\\\'+t.attr("name")+\\\'_dummy" value="\\\'+t.val()+\\\'">\\\')});\\n  jQuery(\\\'input.integer\\\').live(\\\'keyup\\\', function(){this.value=this.value.reverse().replace(/[^0-9\\\\-]|\\\\-(?=.)/g,\\\'\\\').reverse();});\\n  jQuery(\\\'input.double,input.decimal\\\').live(\\\'keyup\\\', function(){this.value=this.value.reverse().replace(/[^0-9\\\\-\\\\.]|[\\\\-](?=.)|[\\\\.](?=[0-9]*[\\\\.])/g,\\\'\\\').reverse();});\\n  jQuery("input[type=\\\'checkbox\\\'].delete").live(\\\'click\\\', function(){ if(this.checked) if(!confirm("\', escape=False)\nresponse.write(T(\'Sure you want to delete this object?\'))\nresponse.write(\'")) this.checked=false; });\\n  try {jQuery("input.date").live(\\\'focus\\\',function() {Calendar.setup({\\n     inputField:this, ifFormat:"\', escape=False)\nresponse.write(T(\'%Y-%m-%d\'))\nresponse.write(\'", showsTime:false\\n  }); }); } catch(e) {};\\n  try { jQuery("input.datetime").live(\\\'focus\\\', function() {Calendar.setup({\\n     inputField:this, ifFormat:"\', escape=False)\nresponse.write(T(\'%Y-%m-%d %H:%M:%S\'))\nresponse.write(\'", showsTime: true,timeFormat: "24"\\n  }); }); } catch(e) {};\\n\\n  jQuery("input.time").live(\\\'focus\\\', function() { var el = jQuery(this); \\n          if (!el.hasClass(\\\'hasTimeEntry\\\')) try { el.timeEntry(); } catch(e) {}; \\n  });\\n};\\n\\njQuery(document).ready(function() {   \\n   var flash = jQuery(\\\'.flash\\\');\\n   flash.hide();\\n   if(flash.html()) flash.slideDown();\\n   web2py_ajax_init();\\n});\\nfunction web2py_trap_form(action,target) {\\n   jQuery(\\\'#\\\'+target+\\\' form\\\').each(function(i){\\n      var form=jQuery(this);\\n      if(!form.hasClass(\\\'no_trap\\\'))\\n        form.submit(function(obj){\\n         jQuery(\\\'.flash\\\').hide().html(\\\'\\\');\\n         web2py_ajax_page(\\\'post\\\',action,form.serialize(),target);\\n         return false;\\n      });\\n   });\\n}\\nfunction web2py_ajax_page(method,action,data,target) {\\n  jQuery.ajax({\\\'type\\\':method,\\\'url\\\':action,\\\'data\\\':data,\\n    \\\'beforeSend\\\':function(xhr) {\\n      xhr.setRequestHeader(\\\'web2py-component-location\\\',document.location);\\n      xhr.setRequestHeader(\\\'web2py-component-element\\\',target);},\\n    \\\'complete\\\':function(xhr,text){\\n      var html=xhr.responseText;\\n      var content=xhr.getResponseHeader(\\\'web2py-component-content\\\'); \\n      var command=xhr.getResponseHeader(\\\'web2py-component-command\\\');\\n      var flash=xhr.getResponseHeader(\\\'web2py-component-flash\\\');\\n      var t = jQuery(\\\'#\\\'+target);\\n      if(content==\\\'prepend\\\') t.prepend(html); \\n      else if(content==\\\'append\\\') t.append(html);\\n      else if(content!=\\\'hide\\\') t.html(html);  \\n      web2py_trap_form(action,target);\\n      web2py_ajax_init();      \\n      if(command) eval(command);\\n      if(flash) jQuery(\\\'.flash\\\').html(flash).slideDown();\\n      }\\n    });\\n}\\nfunction web2py_component(action,target) {\\n    jQuery(document).ready(function(){ web2py_ajax_page(\\\'get\\\',action,null,target); });\\n}\\n//--></script>\\n\', escape=False)\nresponse.write(\'\\n\\n    \', escape=False)\n#using sidebars need to know what sidebar you want to use\n#prior of using it, because of static width size of content, you can use\n#left_sidebar, right_sidebar, both or none (False left and right)\nleft_sidebar_enabled = globals().get(\'left_sidebar_enabled\',False)\nright_sidebar_enabled = globals().get(\'right_sidebar_enabled\',False)\nif left_sidebar_enabled and right_sidebar_enabled: width_content=\'63%\'\nelif left_sidebar_enabled != right_sidebar_enabled: width_content=\'740px\'\nelse: width_content=\'100%\'\nif left_sidebar_enabled: left_sidebar_style = \'style="display: block;"\'\nelse: left_sidebar_style = \'style="display: none;"\'\nif right_sidebar_enabled: right_sidebar_style = \'style="display: block;"\'\nelse: right_sidebar_style = \'style="display: none;"\'\nstyle_content = \'style="width: %s"\' % width_content\nresponse.write(\'\\n  </head>\\n  \\n  <!-- paulirish.com/2008/conditional-stylesheets-vs-css-hacks-answer-neither/ -->\\t\\n  <!--[if lt IE 7 ]> <body class="ie6"> <![endif]-->\\n  <!--[if IE 7 ]>    <body class="ie7"> <![endif]-->\\n  <!--[if IE 8 ]>    <body class="ie8"> <![endif]-->\\n  <!--[if IE 9 ]>    <body class="ie9"> <![endif]-->\\n  <!--[if (gt IE 9)|!(IE)]><!--> <body> <!--<![endif]-->\\n    \\n    <div class="flash">\', escape=False)\nresponse.write(response.flash or \'\')\nresponse.write(\'</div> <!-- notification div -->\\n    \\n    <div id="container">\\t      \\t\\t      \\t\\n      \\n      <div id="wrapper">\\t\\t\\t\\t\\n\\t\\t<div id="statusbar"><!-- statusbar is menu zone -->\\t\\n\\t  \\t\\t\', escape=False)\n#------ superfish menu ------\nresponse.write(\'\\n\\t  \\t\\t\\n\\t  \\t\\t<script type="text/javascript">\\n\\t    \\t\\tjQuery(document).ready(function(){\\n\\t    \\t\\tjQuery(\\\'ul.sf-menu\\\').superfish();});\\n\\t  \\t\\t</script>\\n\\t  \\t\\t<div style="clear: both;"></div><!-- Clear the divs -->\\t\\t  \\t\\t\\t\\t\\n\\t\\t</div>\\n\\t\\t<!-- statusbar -->\\n\\t\\n\\t\\t<div id="page"> <!-- Here my central body -->\\t  \\n\\n\\t  \\t\\t<!-- content -->\\n\\t  \\t\\t<div id="content" \', escape=False)\nresponse.write(XML(style_content))\nresponse.write(\' >\\n\\t    \\t\\t\', escape=False)\nresponse.write(\'\\n<script type="text/javascript" src="\', escape=False)\nresponse.write(URL(\'static\',\'js/ZeroClipboard.js\'))\nresponse.write(\'"></script>\\n\\n<script>\\n\\n      $(document).ready(function() {\\n    \\t      \\t     \\t    \\t\\t\\t\\n    \\t/* This is the delete header example. */\\n        $(\\\'#session_headers\\\').click(function(event) {\\n          var $tgt = $(event.target);\\n          if ($tgt.is(\\\'div\\\')) {\\n              pos = $tgt.attr("id");\\n              $.post(\\n               \\\'\', escape=False)\nresponse.write(URL("delete_header"))\nresponse.write(\'\\\',\\n               {\\\'header\\\': pos},\\n               function(data) {\\n                   $(\\\'#session_headers\\\').html(data)\\n               }\\n              );                           \\n          }\\n        });\\n      }\\n      );\\n      \\n      $(document).ready(function() {\\n    \\t  $(\\\'#button_go\\\').click(function(event){    \\t\\t  \\n    \\t\\t  document.forms[0].flag_redirect.value=\\\'y\\\';\\t    \\t   \\n    \\t  });\\n      });\\n      \\n      $(document).ready(function() {\\n    \\t//set path\\n    \\t  ZeroClipboard.setMoviePath("\', escape=False)\nresponse.write(URL(\'static\',\'ZeroClipboard10.swf\'))\nresponse.write(\'");\\n    \\t  //create client\\n    \\t  var clip = new ZeroClipboard.Client();\\n    \\t  //event\\n    \\t  clip.addEventListener(\\\'mousedown\\\',function() {\\n    \\t    clip.setText(document.getElementById(\\\'no_table_result\\\').value);\\n    \\t  });\\n    \\t  clip.addEventListener(\\\'complete\\\',function(client,text) {\\n    \\t\\t  $(\\\'.flash\\\').html(\\\'Successfully copied.\\\');\\n    \\t\\t  $(\\\'.flash\\\').show();    \\t\\t      \\t\\t  \\n    \\t  });\\n    \\t  //glue it to the button\\n    \\t  clip.glue(\\\'copy\\\');\\n      });\\n      \\n      $(document).ready(function(){ \\n\\t\\t$(\\\'input[type=text]\\\').focus(function(){ \\n\\t\\t\\tif($(this).val() == $(this).attr(\\\'defaultValue\\\'))\\n    \\t    {\\n    \\t      $(this).val(\\\'\\\');\\n    \\t    }\\n    \\t  });\\n    \\t  \\t\\t\\n    \\t}); \\n\\n</script>\\n\\n<div class=\\\'title\\\'>\\n\\t<h2 style="padding-left:10px">\', escape=False)\nresponse.write(T(\'Proxy Headers\'))\nresponse.write(\'</h2>\\n</div>\\n<br/>\\n<div class=\\\'main_box\\\'>\\n\\t<form method="post" enctype="multipart/form-data" action="">\\n\\t\\t<div id=\\\'url\\\'>\\n\\t\\t\\t<label for="url">Url: </label>\\n\\t\\t\\t<input type="text" value="" name="url" id="no_table_url" class="string" size=45>\\n\\t\\t\\t<input type="submit" value="\', escape=False)\nresponse.write(T(\'Get!\'))\nresponse.write(\'">&nbsp;\\t                \\t\\n\\t\\t\\t<input type="submit" id=\\\'button_go\\\' value="\', escape=False)\nresponse.write(T(\'Go!\'))\nresponse.write(\'">\\n\\t\\t</div>\\n    \\t<table>\\n        \\t<tbody>\\n        \\t\\t<tr>\\n        \\t\\t\\t<td class="w2p_fl" colspan="3">\\n        \\t\\t\\t\\t<label for="headers">Http Headers</label>\\n        \\t\\t\\t</td>\\n        \\t\\t</tr>\\n\\t\\t\\t\\t<tr>\\n\\t\\t\\t\\t\\t<td class="w2p_fl">\\n\\t\\t\\t\\t\\t\\t<input type="text" value="header" name="header" id="header_key" class="string" size=20>\\n\\t\\t\\t\\t\\t</td>\\n\\t\\t\\t\\t\\t<td class="w2p_fl">\\n\\t\\t\\t\\t\\t\\t<input type="text" value="value" name="value" id="header_value" class="string" size=20>\\n\\t\\t\\t\\t\\t</td>\\n\\t\\t\\t\\t\\t<td class="w2p_fc">\\n\\t\\t\\t\\t\\t\\t<div id=\\\'add_header\\\' style=\\\'display:inline\\\'>\\n\\t                        \', escape=False)\nresponse.write(A(\'Add\', _href=\'#\'))\nresponse.write("\\n\\t                    </div>\\n\\t                    <script>\\n\\t                        $(\'#add_header\').click(function(event){\\n\\t                        \\tif ($(\'#header_key\').attr(\'value\')!=$(\'#header_key\').attr(\'defaultValue\')\\n\\t                        \\t\\t\\t&& $(\'#header_value\').attr(\'value\')!=$(\'#header_value\').attr(\'defaultValue\')) {\\n\\t                            \\tajax(\'", escape=False)\nresponse.write(URL("add_header"))\nresponse.write(\'\\\', [\\\'header\\\', \\\'value\\\'], \\\'session_headers\\\');\\n\\t                            \\tdocument.getElementById(\\\'header_key\\\').value=\\\'header\\\';\\n\\t                            \\tdocument.getElementById(\\\'header_value\\\').value=\\\'value\\\';\\n\\t                            \\tevent.preventDefault();\\n\\t                        \\t}\\n\\t                        });\\n\\t                    </script>\\n\\t\\t\\t\\t\\t</td>\\n\\t\\t\\t\\t\\n\\t\\t\\t\\t</tr>\\t\\t\\t\\t\\t              \\t                \\n\\t            <tr>            \\t                \\n\\t                <td class="w2p_fw" colspan=\\\'3\\\'>\\n\\t                    <div id=\\\'session_headers\\\'>\\n\\t                        \', escape=False)\nresponse.write(headers)\nresponse.write(\'\\n\\t                    </div>\\n\\t                </td>\\n\\t            </tr>\\n\\t\\t\\t</tbody>\\t           \\n\\t\\t</table>\\n\\t\\t<label id="result" for="no_table_result" style=\\\'padding:0.1em 0.5em;\\\' >Result</label>\\n\\t\\t&nbsp;\\n\\t\\t\', escape=False)\nif form.vars.time:\n    response.write(\'\\n\\t\\t\\t<p>Time \', escape=False)\n    response.write(\'%d:%d\' %(form.vars.time.seconds, form.vars.time.milliseconds))\n    response.write(\'</p>\\n\\t\\t\', escape=False)\n    pass\nresponse.write(\'\\n\\t\\t<br/>\\n\\t\\t<textarea rows="10" name="result" id="no_table_result" cols="80" disabled="disabled">\\n\\t\\t\\t\', escape=False)\nresponse.write(form.vars.result if form.vars.result else \'\')\nresponse.write(\'\\n\\t\\t</textarea>\\n\\t\\t<br/>\\n\\t\\t<label>\', escape=False)\nresponse.write(T(\'Keep values for 30 days\'))\nresponse.write(\'</label>&nbsp;\\n\\t\\t<input name="save_cookie" type="checkbox" value=\\\'Y\\\' checked="checked" style="vertical-align: middle">\\n\\t\\t<input type="button" id="copy" name="copy" value="\', escape=False)\nresponse.write(T(\'Copy to Clipboard\'))\nresponse.write(\'" />&nbsp;\\n\\t        \\n\\t\\t<div class="hidden" style="display: none;">\\n\\t\\t\\t<input value="form_one" type="hidden" name="_formname" />         \\n\\t\\t\\t<input value="n" type="hidden" name="flag_redirect" />\\n\\t\\t</div>      \\n   \\t</form>\\n\\t</div>      \\n<br/>\\n<hr/>\', escape=False)\nresponse.write(\'\\t\\n\\t  \\t\\t</div>\\n\\t  \\t\\t<!-- content -->\\n\\n\\t  \\t\\t<div style="clear: both;"></div><!-- Clear the divs -->\\t\\n\\t\\t</div><!-- page -->\\t\\t\\t\\t\\t\\t\\t\\t\\t\\n\\t\\t<footer>\\n\\t\\t\\t<div id="footer">\\n\\t\\t\\t\\t<table>\\n\\t\\t\\t\\t\\t<tbody>\\n\\t\\t\\t\\t\\t\\t<tr>\\n\\t\\t\\t\\t\\t\\t\\t<td>\\n\\t\\t\\t\\t\\t\\t\\t\\t<b>Uolter</b>\\n\\t\\t\\t\\t\\t\\t\\t</td>\\n\\t\\t\\t\\t\\t\\t\\t<td>\\n\\t\\t\\t\\t\\t\\t\\t\\t<b>Code</b>\\n\\t\\t\\t\\t\\t\\t\\t</td>\\n\\t\\t\\t\\t\\t\\t\\t<td>\\n\\t\\t\\t\\t\\t\\t\\t\\t<b>Projects</b>\\n\\t\\t\\t\\t\\t\\t\\t</td>\\n\\t\\t\\t\\t\\t\\t</tr>\\n\\t\\t\\t\\t\\t\\t<tr>\\n\\t\\t\\t\\t\\t\\t\\t<td>\\n\\t\\t\\t\\t\\t\\t\\t\\t<a href="http://twitter.com/uollter">Twitter:@uollter</a>\\n\\t\\t\\t\\t\\t\\t\\t</td>\\n\\t\\t\\t\\t\\t\\t\\t<td>\\n\\t\\t\\t\\t\\t\\t\\t\\t<a href="http://www.web2py.com">Powered by Web2py</a>\\n\\t\\t\\t\\t\\t\\t\\t</td>\\n\\t\\t\\t\\t\\t\\t\\t<td>\\n\\t\\t\\t\\t\\t\\t\\t\\t<a href="http://code.google.com/p/pypomodoro/">pyPomodoro</a>\\n\\t\\t\\t\\t\\t\\t\\t</td>\\n\\t\\t\\t\\t\\t\\t</tr>\\n\\t\\t\\t\\t\\t\\t<tr>\\n\\t\\t\\t\\t\\t\\t\\t<td>\\n\\t\\t\\t\\t\\t\\t\\t\\t<a href="http://it.linkedin.com/in/wtraspad">linkedin</a>\\n\\t\\t\\t\\t\\t\\t\\t</td>\\n\\t\\t\\t\\t\\t\\t\\t<td>\\n\\t\\t\\t\\t\\t\\t\\t\\t<a href="http://appengine.google.com/">Running on AppEngine</a>\\n\\t\\t\\t\\t\\t\\t\\t</td>\\n\\t\\t\\t\\t\\t\\t\\t<td>\\n\\t\\t\\t\\t\\t\\t\\t\\t<a href="http://code.google.com/p/pootle2py/">pootle2py</a>\\n\\t\\t\\t\\t\\t\\t\\t</td>\\n\\t\\t\\t\\t\\t\\t</tr>\\n\\t\\t\\t\\t\\t</tbody>\\n\\t\\t\\t\\t</table>\\n\\t\\n\\t\\t\\t</div>\\n\\t\\t\\t<!-- footer -->\\n\\t\\t</footer>\\n\\n      </div><!-- wrapper -->\\n    </div><!-- container -->\\t\\t\\n    \\n    <!--[if lt IE 7 ]>\\n\\t<script src="\', escape=False)\nresponse.write(URL(\'static\',\'js/dd_belatedpng.js\'))\nresponse.write(\'"></script>\\n\\t<script> DD_belatedPNG.fix(\\\'img, .png_bg\\\'); //fix any <img> or .png_bg background-images </script>\\n\\t<![endif]-->\\n    \\n    <!-- asynchronous google analytics: mathiasbynens.be/notes/async-analytics-snippet \\n\\t change the UA-XXXXX-X to be your site\\\'s ID -->\\n    <!--   \\n\\t   <script>\\n\\t     var _gaq = [[\\\'_setAccount\\\', \\\'UA-XXXXX-X\\\'], [\\\'_trackPageview\\\']];\\n\\t     (function(d, t) {\\n\\t     var g = d.createElement(t),\\n\\t     s = d.getElementsByTagName(t)[0];\\n\\t     g.async = true;\\n\\t     g.src = \\\'//www.google-analytics.com/ga.js\\\';\\n\\t     s.parentNode.insertBefore(g, s);\\n\\t     })(document, \\\'script\\\');\\n\\t   </script>\\n\\t   -->    \\n  </body>\\n</html>\\n\', escape=False)'
p6
sS'snapshot'
p7
(dp8
S'exception'
p9
(dp10
S'__hash__'
p11
S"<method-wrapper '__hash__' of exceptions.AttributeError object>"
p12
sS'__setattr__'
p13
S"<method-wrapper '__setattr__' of exceptions.AttributeError object>"
p14
sS'__reduce_ex__'
p15
S'<built-in method __reduce_ex__ of exceptions.AttributeError object>'
p16
sS'__getslice__'
p17
S"<method-wrapper '__getslice__' of exceptions.AttributeError object>"
p18
sS'__getitem__'
p19
S"<method-wrapper '__getitem__' of exceptions.AttributeError object>"
p20
sS'__setstate__'
p21
S'<built-in method __setstate__ of exceptions.AttributeError object>'
p22
sS'__reduce__'
p23
S'<built-in method __reduce__ of exceptions.AttributeError object>'
p24
sS'__str__'
p25
S"<method-wrapper '__str__' of exceptions.AttributeError object>"
p26
sS'__format__'
p27
S'<built-in method __format__ of exceptions.AttributeError object>'
p28
sS'__getattribute__'
p29
S"<method-wrapper '__getattribute__' of exceptions.AttributeError object>"
p30
sS'__class__'
p31
S"<type 'exceptions.AttributeError'>"
p32
sS'__unicode__'
p33
S'<built-in method __unicode__ of exceptions.AttributeError object>'
p34
sS'__delattr__'
p35
S"<method-wrapper '__delattr__' of exceptions.AttributeError object>"
p36
sS'__subclasshook__'
p37
S'<built-in method __subclasshook__ of type object>'
p38
sS'__repr__'
p39
S"<method-wrapper '__repr__' of exceptions.AttributeError object>"
p40
sS'args'
p41
S'("\'datetime.timedelta\' object has no attribute \'milliseconds\'",)'
p42
sS'__dict__'
p43
S'{}'
p44
sS'__sizeof__'
p45
S'<built-in method __sizeof__ of exceptions.AttributeError object>'
p46
sS'__doc__'
p47
S"'Attribute not found.'"
p48
sS'__init__'
p49
S"<method-wrapper '__init__' of exceptions.AttributeError object>"
p50
sS'__new__'
p51
S'<built-in method __new__ of type object>'
p52
ssS'evalue'
p53
S"'datetime.timedelta' object has no attribute 'milliseconds'"
p54
sS'request'
p55
(dp56
S'function'
p57
S"'index'"
p58
sS'body'
p59
S"<open file '<fdopen>', mode 'w+b'>"
p60
sS'wsgi'
p61
S"<Storage {'start_response': <function <lambda> a...ING': 'gzip,deflate', 'HTTP_KEEP_ALIVE': '115'}}>"
p62
sS'extension'
p63
S"'html'"
p64
sS'vars'
p65
S"<Storage {'flag_redirect': 'n', 'url': 'http://l...r', '_formname': 'form_one', 'save_cookie': 'Y'}>"
p66
sS'cid'
p67
S'None'
p68
sS'url'
p69
S'<gluon.html.XML object>'
p70
sg41
S'[]'
p71
sS'controller'
p72
S"'default'"
p73
sS'cookies'
p74
S"<SimpleCookie: session_id_modify_headers='127.0.0.1-a161dc97-2042-4933-8feb-b590fd767633'>"
p75
sS'application'
p76
S"'modify_headers'"
p77
sS'ajax'
p78
S'False'
p79
sS'client'
p80
S"'127.0.0.1'"
p81
sS'env'
p82
S"<Storage {'content_length': '774', 'http_user_ag...te', 'query_string': '', 'wsgi_run_once': False}>"
p83
sS'raw_args'
p84
S'None'
p85
sS'get_vars'
p86
S'<Storage {}>'
p87
sS'folder'
p88
S"'/home/uolter/pycode/web2py_1.90.3/applications/modify_headers/'"
p89
sS'now'
p90
S'datetime.datetime(2011, 2, 2, 8, 26, 1, 522850)'
p91
sS'post_vars'
p92
S"<Storage {'flag_redirect': 'n', 'url': 'http://l...r', '_formname': 'form_one', 'save_cookie': 'Y'}>"
p93
ssS'frames'
p94
(lp95
(dp96
S'file'
p97
S'/home/uolter/pycode/web2py_1.90.3/gluon/restricted.py'
p98
sS'dump'
p99
(dp100
S'environment'
p101
S"{'A': <class 'gluon.html.A'>, 'Auth': <class 'gluon.tools.Auth'>, 'B': <class 'gluon.html.B'>, 'BEAUTIFY': <class 'gluon.html.BEAUTIFY'>, 'BODY': <class 'gluon.html.BODY'>, 'BR': <class 'gluon.html.BR'>, 'CENTER': <class 'gluon.html.CENTER'>, 'CLEANUP': <class 'gluon.validators.CLEANUP'>, 'CODE': <class 'gluon.html.CODE'>, 'CRYPT': <class 'gluon.validators.CRYPT'>, ...}"
p102
sS'ccode'
p103
S'<code object <module> at 0x9fb59b0, file "/home/...modify_headers/views/default/index.html", line 1>'
p104
ssS'lnum'
p105
I188
sS'lines'
p106
(dp107
I192
S'        # XXX Show exception in Wing IDE if running in debugger'
p108
sI183
S'        if type(code) == types.CodeType:'
p109
sI184
S'            ccode = code'
p110
sI185
S'        else:'
p111
sI186
S'            ccode = compile2(code,layer)'
p112
sI187
S''
sI188
S'        exec ccode in environment'
p113
sI189
S'    except HTTP:'
p114
sI190
S'        raise'
p115
sI191
S'    except Exception:'
p116
ssS'call'
p117
S'(code=\'response.write(\\\'<!DOCTYPE html>\\\\n<html lang="\\\', ...t   -->    \\\\n  </body>\\\\n</html>\\\\n\\\', escape=False)\', environment={\'A\': <class \'gluon.html.A\'>, \'Auth\': <class \'gluon.tools.Auth\'>, \'B\': <class \'gluon.html.B\'>, \'BEAUTIFY\': <class \'gluon.html.BEAUTIFY\'>, \'BODY\': <class \'gluon.html.BODY\'>, \'BR\': <class \'gluon.html.BR\'>, \'CENTER\': <class \'gluon.html.CENTER\'>, \'CLEANUP\': <class \'gluon.validators.CLEANUP\'>, \'CODE\': <class \'gluon.html.CODE\'>, \'CRYPT\': <class \'gluon.validators.CRYPT\'>, ...}, layer=\'/home/uolter/pycode/web2py_1.90.3/applications/modify_headers/views/default/index.html\')'
p118
sS'func'
p119
S'restricted'
p120
sa(dp121
g97
S'/home/uolter/pycode/web2py_1.90.3/applications/modify_headers/views/default/index.html'
p122
sg99
(dp123
sg105
I99
sg106
(dp124
I96
S'response.write(\'\\n\\t                    </div>\\n\\t                </td>\\n\\t            </tr>\\n\\t\\t\\t</tbody>\\t           \\n\\t\\t</table>\\n\\t\\t<label id="result" for="no_table_result" style=\\\'padding:0.1em 0.5em;\\\' >Result</label>\\n\\t\\t&nbsp;\\n\\t\\t\', escape=False)'
p125
sI97
S'if form.vars.time:'
p126
sI98
S"    response.write('\\n\\t\\t\\t<p>Time ', escape=False)"
p127
sI99
S"    response.write('%d:%d' %(form.vars.time.seconds, form.vars.time.milliseconds))"
p128
sI100
S"    response.write('</p>\\n\\t\\t', escape=False)"
p129
sI101
S'    pass'
p130
sI102
S'response.write(\'\\n\\t\\t<br/>\\n\\t\\t<textarea rows="10" name="result" id="no_table_result" cols="80" disabled="disabled">\\n\\t\\t\\t\', escape=False)'
p131
sI103
S"response.write(form.vars.result if form.vars.result else '')"
p132
sI104
S"response.write('\\n\\t\\t</textarea>\\n\\t\\t<br/>\\n\\t\\t<label>', escape=False)"
p133
sI105
S"response.write(T('Keep values for 30 days'))"
p134
sI106
S'response.write(\'</label>&nbsp;\\n\\t\\t<input name="save_cookie" type="checkbox" value=\\\'Y\\\' checked="checked" style="vertical-align: middle">\\n\\t\\t<input type="button" id="copy" name="copy" value="\', escape=False)'
p135
sI107
S"response.write(T('Copy to Clipboard'))"
p136
sI108
S'response.write(\'" />&nbsp;\\n\\t        \\n\\t\\t<div class="hidden" style="display: none;">\\n\\t\\t\\t<input value="form_one" type="hidden" name="_formname" />         \\n\\t\\t\\t<input value="n" type="hidden" name="flag_redirect" />\\n\\t\\t</div>      \\n   \\t</form>\\n\\t</div>      \\n<br/>\\n<hr/>\', escape=False)'
p137
sI109
S'response.write(\'\\t\\n\\t  \\t\\t</div>\\n\\t  \\t\\t<!-- content -->\\n\\n\\t  \\t\\t<div style="clear: both;"></div><!-- Clear the divs -->\\t\\n\\t\\t</div><!-- page -->\\t\\t\\t\\t\\t\\t\\t\\t\\t\\n\\t\\t<footer>\\n\\t\\t\\t<div id="footer">\\n\\t\\t\\t\\t<table>\\n\\t\\t\\t\\t\\t<tbody>\\n\\t\\t\\t\\t\\t\\t<tr>\\n\\t\\t\\t\\t\\t\\t\\t<td>\\n\\t\\t\\t\\t\\t\\t\\t\\t<b>Uolter</b>\\n\\t\\t\\t\\t\\t\\t\\t</td>\\n\\t\\t\\t\\t\\t\\t\\t<td>\\n\\t\\t\\t\\t\\t\\t\\t\\t<b>Code</b>\\n\\t\\t\\t\\t\\t\\t\\t</td>\\n\\t\\t\\t\\t\\t\\t\\t<td>\\n\\t\\t\\t\\t\\t\\t\\t\\t<b>Projects</b>\\n\\t\\t\\t\\t\\t\\t\\t</td>\\n\\t\\t\\t\\t\\t\\t</tr>\\n\\t\\t\\t\\t\\t\\t<tr>\\n\\t\\t\\t\\t\\t\\t\\t<td>\\n\\t\\t\\t\\t\\t\\t\\t\\t<a href="http://twitter.com/uollter">Twitter:@uollter</a>\\n\\t\\t\\t\\t\\t\\t\\t</td>\\n\\t\\t\\t\\t\\t\\t\\t<td>\\n\\t\\t\\t\\t\\t\\t\\t\\t<a href="http://www.web2py.com">Powered by Web2py</a>\\n\\t\\t\\t\\t\\t\\t\\t</td>\\n\\t\\t\\t\\t\\t\\t\\t<td>\\n\\t\\t\\t\\t\\t\\t\\t\\t<a href="http://code.google.com/p/pypomodoro/">pyPomodoro</a>\\n\\t\\t\\t\\t\\t\\t\\t</td>\\n\\t\\t\\t\\t\\t\\t</tr>\\n\\t\\t\\t\\t\\t\\t<tr>\\n\\t\\t\\t\\t\\t\\t\\t<td>\\n\\t\\t\\t\\t\\t\\t\\t\\t<a href="http://it.linkedin.com/in/wtraspad">linkedin</a>\\n\\t\\t\\t\\t\\t\\t\\t</td>\\n\\t\\t\\t\\t\\t\\t\\t<td>\\n\\t\\t\\t\\t\\t\\t\\t\\t<a href="http://appengine.google.com/">Running on AppEngine</a>\\n\\t\\t\\t\\t\\t\\t\\t</td>\\n\\t\\t\\t\\t\\t\\t\\t<td>\\n\\t\\t\\t\\t\\t\\t\\t\\t<a href="http://code.google.com/p/pootle2py/">pootle2py</a>\\n\\t\\t\\t\\t\\t\\t\\t</td>\\n\\t\\t\\t\\t\\t\\t</tr>\\n\\t\\t\\t\\t\\t</tbody>\\n\\t\\t\\t\\t</table>\\n\\t\\n\\t\\t\\t</div>\\n\\t\\t\\t<!-- footer -->\\n\\t\\t</footer>\\n\\n      </div><!-- wrapper -->\\n    </div><!-- container -->\\t\\t\\n    \\n    <!--[if lt IE 7 ]>\\n\\t<script src="\', escape=False)'
p138
sI90
S'response.write(\'">\\n\\t\\t</div>\\n    \\t<table>\\n        \\t<tbody>\\n        \\t\\t<tr>\\n        \\t\\t\\t<td class="w2p_fl" colspan="3">\\n        \\t\\t\\t\\t<label for="headers">Http Headers</label>\\n        \\t\\t\\t</td>\\n        \\t\\t</tr>\\n\\t\\t\\t\\t<tr>\\n\\t\\t\\t\\t\\t<td class="w2p_fl">\\n\\t\\t\\t\\t\\t\\t<input type="text" value="header" name="header" id="header_key" class="string" size=20>\\n\\t\\t\\t\\t\\t</td>\\n\\t\\t\\t\\t\\t<td class="w2p_fl">\\n\\t\\t\\t\\t\\t\\t<input type="text" value="value" name="value" id="header_value" class="string" size=20>\\n\\t\\t\\t\\t\\t</td>\\n\\t\\t\\t\\t\\t<td class="w2p_fc">\\n\\t\\t\\t\\t\\t\\t<div id=\\\'add_header\\\' style=\\\'display:inline\\\'>\\n\\t                        \', escape=False)'
p139
sI91
S"response.write(A('Add', _href='#'))"
p140
sI92
S'response.write("\\n\\t                    </div>\\n\\t                    <script>\\n\\t                        $(\'#add_header\').click(function(event){\\n\\t                        \\tif ($(\'#header_key\').attr(\'value\')!=$(\'#header_key\').attr(\'defaultValue\')\\n\\t                        \\t\\t\\t&& $(\'#header_value\').attr(\'value\')!=$(\'#header_value\').attr(\'defaultValue\')) {\\n\\t                            \\tajax(\'", escape=False)'
p141
sI93
S'response.write(URL("add_header"))'
p142
sI94
S'response.write(\'\\\', [\\\'header\\\', \\\'value\\\'], \\\'session_headers\\\');\\n\\t                            \\tdocument.getElementById(\\\'header_key\\\').value=\\\'header\\\';\\n\\t                            \\tdocument.getElementById(\\\'header_value\\\').value=\\\'value\\\';\\n\\t                            \\tevent.preventDefault();\\n\\t                        \\t}\\n\\t                        });\\n\\t                    </script>\\n\\t\\t\\t\\t\\t</td>\\n\\t\\t\\t\\t\\n\\t\\t\\t\\t</tr>\\t\\t\\t\\t\\t              \\t                \\n\\t            <tr>            \\t                \\n\\t                <td class="w2p_fw" colspan=\\\'3\\\'>\\n\\t                    <div id=\\\'session_headers\\\'>\\n\\t                        \', escape=False)'
p143
sI95
S'response.write(headers)'
p144
ssg117
S'()'
p145
sg119
S'<module>'
p146
sasS'pyver'
p147
S'Python 2.6.5: /usr/bin/python'
p148
sS'session'
p149
(dp150
S'headers'
p151
g44
ssS'etype'
p152
S"<type 'exceptions.AttributeError'>"
p153
sS'date'
p154
S'Wed Feb  2 08:26:01 2011'
p155
sS'response'
p156
(dp157
S'status'
p158
S'200'
p159
sg59
S'<cStringIO.StringO object>'
p160
sg74
S"<SimpleCookie: headers='{}' session_id_modify_he...'127.0.0.1-a161dc97-2042-4933-8feb-b590fd767633'>"
p161
sS'_vars'
p162
S"{'form': <gluon.sqlhtml.SQLFORM object>, 'headers': <gluon.html.UL object>}"
p163
sS'title'
p164
S"'modify_headers'"
p165
sS'session_file'
p166
S"<open file '/home/uolter/pycode/web2py_1.90.3/ap...161dc97-2042-4933-8feb-b590fd767633', mode 'rb+'>"
p167
sS'flash'
p168
S"<lazyT 'Here you go!!'>"
p169
sS'_custom_rollback'
p170
S'None'
p171
sS'session_id'
p172
S"'127.0.0.1-a161dc97-2042-4933-8feb-b590fd767633'"
p173
sS'headers'
p174
S"<Storage {'Expires': 'Wed, 02 Feb 2011 07:26:01 ...he, must-revalidate, post-check=0, pre-check=0'}>"
p175
sS'meta'
p176
S"<Storage {'keywords': 'web2py, python, framework... 'Web2py Enterprise Framework', 'author': 'you'}>"
p177
sS'session_filename'
p178
S"'/home/uolter/pycode/web2py_1.90.3/applications/m...ns/127.0.0.1-a161dc97-2042-4933-8feb-b590fd767633'"
p179
sS'postprocessing'
p180
S'[]'
p181
sS'menu'
p182
S"[(<lazyT 'Home'>, False, <gluon.html.XML object>, []), (<lazyT 'This App'>, False, <gluon.html.XML object>, [(<lazyT 'Controller'>, False, <gluon.html.XML object>), (<lazyT 'View'>, False, <gluon.html.XML object>), (<lazyT 'Layout'>, False, <gluon.html.XML object>), (<lazyT 'Stylesheet'>, False, <gluon.html.XML object>), (<lazyT 'DB Model'>, False, <gluon.html.XML object>), (<lazyT 'Menu Model'>, False, <gluon.html.XML object>), (<lazyT 'Database'>, False, <gluon.html.XML object>), (<lazyT 'Errors'>, False, <gluon.html.XML object>), (<lazyT 'About'>, False, <gluon.html.XML object>)]), (<lazyT 'Resources'>, False, None, [(<lazyT 'Documentation'>, False, 'http://www.web2py.com/book', [(<lazyT 'Preface'>, False, 'http://www.web2py.com/book/default/chapter/00'), (<lazyT 'Introduction'>, False, 'http://www.web2py.com/book/default/chapter/01'), (<lazyT 'Python'>, False, 'http://www.web2py.com/book/default/chapter/02'), (<lazyT 'Overview'>, False, 'http://www.web2py.com/book/default/chapter/03'), (<lazyT 'The Core'>, False, 'http://www.web2py.com/book/default/chapter/04'), (<lazyT 'The Views'>, False, 'http://www.web2py.com/book/default/chapter/05'), (<lazyT 'Database'>, False, 'http://www.web2py.com/book/default/chapter/06'), (<lazyT 'Forms and Validators'>, False, 'http://www.web2py.com/book/default/chapter/07'), (<lazyT 'Access Control'>, False, 'http://www.web2py.com/book/default/chapter/08'), (<lazyT 'Services'>, False, 'http://www.web2py.com/book/default/chapter/09'), (<lazyT 'Ajax Recipes'>, False, 'http://www.web2py.com/book/default/chapter/10'), (<lazyT 'Deployment Recipes'>, False, 'http://www.web2py.com/book/default/chapter/11'), (<lazyT 'Other Recipes'>, False, 'http://www.web2py.com/book/default/chapter/12'), (<lazyT 'Buy this book'>, False, 'http://stores.lulu.com/web2py')]), (<lazyT 'Community'>, False, None, [(<lazyT 'Groups'>, False, 'http://www.web2py.com/examples/default/usergroups'), (<lazyT 'Twitter'>, False, 'http://twitter.com/web2py'), (<lazyT 'Live chat'>, False, 'http://mibbit.com/?channel=%23web2py&server=irc.mibbit.net'), (<lazyT 'User Voice'>, False, 'http://web2py.uservoice.com/')]), (<lazyT 'Web2py'>, False, 'http://www.web2py.com', [(<lazyT 'Download'>, False, 'http://www.web2py.com/examples/default/download'), (<lazyT 'Support'>, False, 'http://www.web2py.com/examples/default/support'), (<lazyT 'Quick Examples'>, False, 'http://web2py.com/examples/default/examples'), (<lazyT 'FAQ'>, False, 'http://web2py.com/AlterEgo'), (<lazyT 'Free Applications'>, False, 'http://web2py.com/appliances'), (<lazyT 'Plugins'>, False, 'http://web2py.com/plugins'), (<lazyT 'Recipes'>, False, 'http://web2pyslices.com/'), (<lazyT 'Demo'>, False, 'http://web2py.com/demo_admin'), (<lazyT 'Semantic'>, False, 'http://web2py.com/semantic'), (<lazyT 'Layouts'>, False, 'http://web2py.com/layouts'), (<lazyT 'Videos'>, False, 'http://www.web2py.com/examples/default/videos/')])])]"
p183
sS'_view_environment'
p184
S"{'A': <class 'gluon.html.A'>, 'Auth': <class 'gluon.tools.Auth'>, 'B': <class 'gluon.html.B'>, 'BEAUTIFY': <class 'gluon.html.BEAUTIFY'>, 'BODY': <class 'gluon.html.BODY'>, 'BR': <class 'gluon.html.BR'>, 'CENTER': <class 'gluon.html.CENTER'>, 'CLEANUP': <class 'gluon.validators.CLEANUP'>, 'CODE': <class 'gluon.html.CODE'>, 'CRYPT': <class 'gluon.validators.CRYPT'>, ...}"
p185
sS'subtitle'
p186
S"<lazyT 'customize me!'>"
p187
sS'session_id_name'
p188
S"'session_id_modify_headers'"
p189
sS'_custom_commit'
p190
S'None'
p191
sS'_caller'
p192
S'<function <lambda>>'
p193
sS'files'
p194
S'[<gluon.html.XML object>, <gluon.html.XML object>, <gluon.html.XML object>, <gluon.html.XML object>, <gluon.html.XML object>, <gluon.html.XML object>]'
p195
sS'view'
p196
S"'default/index.html'"
p197
ssS'locals'
p198
(dp199
S'Service'
p200
S"<class 'gluon.tools.Service'>"
p201
sS'OBJECT'
p202
S"<class 'gluon.html.OBJECT'>"
p203
sS'_file'
p204
S'<gluon.html.XML object>'
p205
sS'SQLDB'
p206
S"<class 'gluon.dal.DAL'>"
p207
sg149
S"<Storage {'headers': {}}>"
p208
sS'LINK'
p209
S"<class 'gluon.html.LINK'>"
p210
sS'BR'
p211
S"<class 'gluon.html.BR'>"
p212
sS'local_import'
p213
S'<function <lambda>>'
p214
sS'OPTGROUP'
p215
S"<class 'gluon.html.OPTGROUP'>"
p216
sS'PRE'
p217
S"<class 'gluon.html.PRE'>"
p218
sS'IS_INT_IN_RANGE'
p219
S"<class 'gluon.validators.IS_INT_IN_RANGE'>"
p220
sS'left_sidebar_enabled'
p221
g79
sS'IS_LOWER'
p222
S"<class 'gluon.validators.IS_LOWER'>"
p223
sS'IS_STRONG'
p224
S"<class 'gluon.validators.IS_STRONG'>"
p225
sS'Recaptcha'
p226
S"<class 'gluon.tools.Recaptcha'>"
p227
sS'cache'
p228
S'<gluon.cache.Cache object>'
p229
sS'IS_IN_DB'
p230
S"<class 'gluon.validators.IS_IN_DB'>"
p231
sS'TAG'
p232
S'<gluon.html.__TAG__ object>'
p233
sS'_k'
p234
S'5'
sS'SQLField'
p235
S"<class 'gluon.dal.Field'>"
p236
sS'mail'
p237
S'<gluon.tools.Mail object>'
p238
sS'BODY'
p239
S"<class 'gluon.html.BODY'>"
p240
sS'IS_DATE_IN_RANGE'
p241
S"<class 'gluon.validators.IS_DATE_IN_RANGE'>"
p242
sS'TH'
p243
S"<class 'gluon.html.TH'>"
p244
sS'URL'
p245
S'<function _URL>'
p246
sS'db'
p247
S"<DAL {'_lastsql': '', '_db_codec': 'UTF-8', '_fa...'tables': [], '_migrate': True, '_pool_size': 0}>"
p248
sS'P'
S"<class 'gluon.html.P'>"
p249
sS'TFOOT'
p250
S"<class 'gluon.html.TFOOT'>"
p251
sS'XHTML'
p252
S"<class 'gluon.html.XHTML'>"
p253
sS'ON'
p254
S'True'
p255
sS'OL'
p256
S"<class 'gluon.html.OL'>"
p257
sS'TEXTAREA'
p258
S"<class 'gluon.html.TEXTAREA'>"
p259
sS'MENU'
p260
S"<class 'gluon.html.MENU'>"
p261
sS'_file0'
p262
S"'/modify_headers/static/js/superfish.js'"
p263
sS'LOAD'
p264
S'<gluon.compileapp.LoadFactory object>'
p265
sS'CODE'
p266
S"<class 'gluon.html.CODE'>"
p267
sS'HTTP'
p268
S"<class 'gluon.http.HTTP'>"
p269
sS'HR'
p270
S"<class 'gluon.html.HR'>"
p271
sS'IS_DATETIME'
p272
S"<class 'gluon.validators.IS_DATETIME'>"
p273
sS'HEAD'
p274
S"<class 'gluon.html.HEAD'>"
p275
sS'LABEL'
p276
S"<class 'gluon.html.LABEL'>"
p277
sS'CLEANUP'
p278
S"<class 'gluon.validators.CLEANUP'>"
p279
sS'plugins'
p280
S'<gluon.tools.PluginManager object>'
p281
sS'SELECT'
p282
S"<class 'gluon.html.SELECT'>"
p283
sS'CENTER'
p284
S"<class 'gluon.html.CENTER'>"
p285
sS'left_sidebar_style'
p286
S'\'style="display: none;"\''
p287
sS'Crud'
p288
S"<class 'gluon.tools.Crud'>"
p289
sS'Auth'
p290
S"<class 'gluon.tools.Auth'>"
p291
sS'__builtins__'
p292
S"{'ArithmeticError': <type 'exceptions.ArithmeticError'>, 'AssertionError': <type 'exceptions.AssertionError'>, 'AttributeError': <type 'exceptions.AttributeError'>, 'BaseException': <type 'exceptions.BaseException'>, 'BufferError': <type 'exceptions.BufferError'>, 'BytesWarning': <type 'exceptions.BytesWarning'>, 'DeprecationWarning': <type 'exceptions.DeprecationWarning'>, 'EOFError': <type 'exceptions.EOFError'>, 'Ellipsis': Ellipsis, 'EnvironmentError': <type 'exceptions.EnvironmentError'>, ...}"
p293
sS'IS_LIST_OF'
p294
S"<class 'gluon.validators.IS_LIST_OF'>"
p295
sS'SQLFORM'
p296
S"<class 'gluon.sqlhtml.SQLFORM'>"
p297
sS'_item'
p298
S"'author'"
p299
sS'EM'
p300
S"<class 'gluon.html.EM'>"
p301
sS'redirect'
p302
S'<function redirect>'
p303
sS'FIELDSET'
p304
S"<class 'gluon.html.FIELDSET'>"
p305
sS'IS_EQUAL_TO'
p306
S"<class 'gluon.validators.IS_EQUAL_TO'>"
p307
sS'embed64'
p308
S'<function embed64>'
p309
sS'INPUT'
p310
S"<class 'gluon.html.INPUT'>"
p311
sS'EMBED'
p312
S"<class 'gluon.html.EMBED'>"
p313
sS'FORM'
p314
S"<class 'gluon.html.FORM'>"
p315
sS'width_content'
p316
S"'100%'"
p317
sS'H2'
p318
S"<class 'gluon.html.H2'>"
p319
sS'H3'
p320
S"<class 'gluon.html.H3'>"
p321
sS'H1'
p322
S"<class 'gluon.html.H1'>"
p323
sS'H6'
p324
S"<class 'gluon.html.H6'>"
p325
sS'H4'
p326
S"<class 'gluon.html.H4'>"
p327
sS'H5'
p328
S"<class 'gluon.html.H5'>"
p329
sS'UL'
p330
S"<class 'gluon.html.UL'>"
p331
sS'IS_UPPER'
p332
S"<class 'gluon.validators.IS_UPPER'>"
p333
sS'xmlescape'
p334
S'<function xmlescape>'
p335
sS'IS_TIME'
p336
S"<class 'gluon.validators.IS_TIME'>"
p337
sS'OPTION'
p338
S"<class 'gluon.html.OPTION'>"
p339
sS'TITLE'
p340
S"<class 'gluon.html.TITLE'>"
p341
sS'CRYPT'
p342
S"<class 'gluon.validators.CRYPT'>"
p343
sS'IS_EMPTY_OR'
p344
S"<class 'gluon.validators.IS_EMPTY_OR'>"
p345
sS'MARKMIN'
p346
S"<class 'gluon.html.MARKMIN'>"
p347
sS'service'
p348
S'<gluon.tools.Service object>'
p349
sS'SCRIPT'
p350
S"<class 'gluon.html.SCRIPT'>"
p351
sS'geocode'
p352
S'<function geocode>'
p353
sS'TABLE'
p354
S"<class 'gluon.html.TABLE'>"
p355
sS'IS_IPV4'
p356
S"<class 'gluon.validators.IS_IPV4'>"
p357
sS'IS_LENGTH'
p358
S"<class 'gluon.validators.IS_LENGTH'>"
p359
sS'XML'
p360
S"<class 'gluon.html.XML'>"
p361
sS'B'
S"<class 'gluon.html.B'>"
p362
sS'form'
p363
S'<gluon.sqlhtml.SQLFORM object>'
p364
sS'SQLTABLE'
p365
S"<class 'gluon.sqlhtml.SQLTABLE'>"
p366
sS'IS_MATCH'
p367
S"<class 'gluon.validators.IS_MATCH'>"
p368
sS'IS_ALPHANUMERIC'
p369
S"<class 'gluon.validators.IS_ALPHANUMERIC'>"
p370
sS'SPAN'
p371
S"<class 'gluon.html.SPAN'>"
p372
sS'IS_SLUG'
p373
S"<class 'gluon.validators.IS_SLUG'>"
p374
sg174
S'<gluon.html.UL object>'
p375
sS'BEAUTIFY'
p376
S"<class 'gluon.html.BEAUTIFY'>"
p377
sS'META'
p378
S"<class 'gluon.html.META'>"
p379
sS'fetch'
p380
S'<function fetch>'
p381
sS'IS_DATE'
p382
S"<class 'gluon.validators.IS_DATE'>"
p383
sS'IS_EMAIL'
p384
S"<class 'gluon.validators.IS_EMAIL'>"
p385
sS'IS_NOT_EMPTY'
p386
S"<class 'gluon.validators.IS_NOT_EMPTY'>"
p387
sg55
S"<Storage {'function': 'index', 'body': <open fil..., '_formname': 'form_one', 'save_cookie': 'Y'}>}>"
p388
sS'TBODY'
p389
S"<class 'gluon.html.TBODY'>"
p390
sS'Field'
p391
S"<class 'gluon.dal.Field'>"
p392
sS'Mail'
p393
S"<class 'gluon.tools.Mail'>"
p394
sS'DIV'
p395
S"<class 'gluon.html.DIV'>"
p396
sS'LEGEND'
p397
S"<class 'gluon.html.LEGEND'>"
p398
sS'IMG'
p399
S"<class 'gluon.html.IMG'>"
p400
sS'DAL'
p401
S"<class 'gluon.dal.DAL'>"
p402
sS'TT'
p403
S"<class 'gluon.html.TT'>"
p404
sS'TR'
p405
S"<class 'gluon.html.TR'>"
p406
sS'LI'
p407
S"<class 'gluon.html.LI'>"
p408
sS'right_sidebar_enabled'
p409
g79
sS'IFRAME'
p410
S"<class 'gluon.html.IFRAME'>"
p411
sS'TD'
p412
S"<class 'gluon.html.TD'>"
p413
sS'PluginManager'
p414
S"<class 'gluon.tools.PluginManager'>"
p415
sS'IS_URL'
p416
S"<class 'gluon.validators.IS_URL'>"
p417
sS'A'
S"<class 'gluon.html.A'>"
p418
sS'STYLE'
p419
S"<class 'gluon.html.STYLE'>"
p420
sS'IS_DATETIME_IN_RANGE'
p421
S"<class 'gluon.validators.IS_DATETIME_IN_RANGE'>"
p422
sS'HTML'
p423
S"<class 'gluon.html.HTML'>"
p424
sS'IS_IMAGE'
p425
S"<class 'gluon.validators.IS_IMAGE'>"
p426
sS'I'
S"<class 'gluon.html.I'>"
p427
sS'crud'
p428
S'<gluon.tools.Crud object>'
p429
sS'right_sidebar_style'
p430
S'\'style="display: none;"\''
p431
sS'IS_NOT_IN_DB'
p432
S"<class 'gluon.validators.IS_NOT_IN_DB'>"
p433
sg156
S"<Storage {'status': 200, 'body': <cStringIO.Stri...object at 0xa021fcc>], '_custom_rollback': None}>"
p434
sS'THEAD'
p435
S"<class 'gluon.html.THEAD'>"
p436
sS'IS_NULL_OR'
p437
S"<class 'gluon.validators.IS_EMPTY_OR'>"
p438
sS'prettydate'
p439
S'<function prettydate>'
p440
sS'IS_FLOAT_IN_RANGE'
p441
S"<class 'gluon.validators.IS_FLOAT_IN_RANGE'>"
p442
sS'IS_EXPR'
p443
S"<class 'gluon.validators.IS_EXPR'>"
p444
sS'T'
S'<gluon.languages.translator object>'
p445
sS'IS_IN_SET'
p446
S"<class 'gluon.validators.IS_IN_SET'>"
p447
sS'IS_UPLOAD_FILENAME'
p448
S"<class 'gluon.validators.IS_UPLOAD_FILENAME'>"
p449
sS'style_content'
p450
S'\'style="width: 100%"\''
p451
sS'IS_DECIMAL_IN_RANGE'
p452
S"<class 'gluon.validators.IS_DECIMAL_IN_RANGE'>"
p453
sssS'traceback'
p454
S'Traceback (most recent call last):\n  File "/home/uolter/pycode/web2py_1.90.3/gluon/restricted.py", line 188, in restricted\n    exec ccode in environment\n  File "/home/uolter/pycode/web2py_1.90.3/applications/modify_headers/views/default/index.html", line 99, in <module>\n    });\nAttributeError: \'datetime.timedelta\' object has no attribute \'milliseconds\'\n'
p455
s.