(dp1
S'output'
p2
S''
sS'layer'
p3
S'/home/uolter/pycode/web2py_1.90.3/applications/modify_headers/controllers/default.py'
p4
sS'code'
p5
S'# -*- coding: utf-8 -*- \n# this file is released under public domain and you can use without limitations\n\n#########################################################################\n## This is a samples controller\n## - index is the default action of any application\n## - user is required for authentication and authorization\n## - download is for downloading files uploaded in the db (does streaming)\n## - call exposes all registered services (none by default)\n#########################################################################\n\nimport urllib2\nfrom urllib2 import HTTPError\n\n# import simplejson as json\nif request.env.web2py_runtime_gae:\n    from django.utils import simplejson as json\nelse:\n    import simplejson as json\n\ndef index():\n\n    headers=session.headers \n                \n    if headers==None or len(headers)<1:\n        # try to read headers from the cookies\n        headers=_load_cookies(request)        \n        if headers==None:        \n            headers={}\n            \n        session.headers=headers\n\n        \n    form = SQLFORM.factory(\n         Field(\'url\', requires=IS_NOT_EMPTY()),\n         Field(\'header\'),\n         Field(\'value\'),\n         Field(\'result\', \'text\')\n         )\n         \n        \n    if form.accepts(request.vars, formname=\'form_one\'):\n        response.flash = T(\'Here you go!!\')\n        try:                \n            form.vars.result=_call_url(form, headers)\n        except HTTPError as (errno, strerror):   \n            import pdb; pdb.set_trace()     \n            return T(\'Error calling the url.\')\n        \n        if request.vars.flag_redirect ==\'y\':\n            return form.vars.result\n                    \n            \n    return dict(form=form, headers=_html_headers(headers))\n\n\ndef _set_headres(headers, req):\n    \n    if headers:\n        for h in headers:\n            req.add_header(h, headers[h])\n    \n    return req\n            \n\n        \ndef _call_url(form, headers):\n    \n    \n    if not form.vars.url.startswith(\'http\'):\n        url=\'http://%s\' %form.vars.url\n    else:\n        url=form.vars.url\n    \n    req = urllib2.Request(url)\n    req= _set_headres(headers, req)\n            \n    opener = urllib2.build_opener()\n    res=opener.open(req)    \n    \n    return res.read()\n    \ndef _html_headers(headers):\n    \n    list_header=[]\n    for h in headers:\n        list_header.append(LI(\'%s:%s  \' %(h, headers[h]), A(DIV(\'delete\', _id=\'%s\' %h, _class=\'link_delete\' ), _href=\'#\')))\n                        \n    return UL(list_header, _id=\'list_headers\')\n    \ndef add_header():\n\n    headers=session.headers\n               \n    if (request.vars.header and len(request.vars.header)>0):\n        headers[request.vars.header]= request.vars.value\n\n          \n    return _html_headers(headers).xml()\n    \ndef delete_header():\n    \n    headers=session.headers\n   \n    if request.vars.header:\n        headers.pop(request.vars.header)\n    \n    return _html_headers(headers).xml()\n    \ndef _save_cookies(response, headers):\n\n    response.cookies[\'headers\'] = json.dumps(headers)\n    \n    # one month cookies\n    response.cookies[\'headers\'][\'expires\'] = 30 * 24 * 60 * 60\n    # response.cookies[\'headers\'][\'path\'] = \'/modify_headers/\'\n    # response.cookies[\'headers\'][\'domain\'] = response._view_environment[\'request\'].env[\'remote_addr\']\n    \ndef _load_cookies(request):\n\n        \n    if request.cookies.has_key(\'headers\'):    \n            \n        myc=request.cookies[\'headers\']    \n                                  \n        return json.loads(myc.value)\n       \n           \ndef call():\n    """\n    exposes services. for example:\n    http://..../[app]/default/call/jsonrpc\n    decorate with @services.jsonrpc the functions to expose\n    supports xml, json, xmlrpc, jsonrpc, amfrpc, rss, csv\n    """\n    session.forget()\n    return service()\n\nresponse._vars=response._caller(index)\n'
p6
sS'snapshot'
p7
(dp8
S'exception'
p9
(dp10
S'__hash__'
p11
S"<method-wrapper '__hash__' of exceptions.ValueError object>"
p12
sS'__setattr__'
p13
S"<method-wrapper '__setattr__' of exceptions.ValueError object>"
p14
sS'__reduce_ex__'
p15
S'<built-in method __reduce_ex__ of exceptions.ValueError object>'
p16
sS'__getslice__'
p17
S"<method-wrapper '__getslice__' of exceptions.ValueError object>"
p18
sS'__getitem__'
p19
S"<method-wrapper '__getitem__' of exceptions.ValueError object>"
p20
sS'__setstate__'
p21
S'<built-in method __setstate__ of exceptions.ValueError object>'
p22
sS'__reduce__'
p23
S'<built-in method __reduce__ of exceptions.ValueError object>'
p24
sS'__str__'
p25
S"<method-wrapper '__str__' of exceptions.ValueError object>"
p26
sS'__format__'
p27
S'<built-in method __format__ of exceptions.ValueError object>'
p28
sS'__getattribute__'
p29
S"<method-wrapper '__getattribute__' of exceptions.ValueError object>"
p30
sS'__class__'
p31
S"<type 'exceptions.ValueError'>"
p32
sS'__unicode__'
p33
S'<built-in method __unicode__ of exceptions.ValueError object>'
p34
sS'__delattr__'
p35
S"<method-wrapper '__delattr__' of exceptions.ValueError object>"
p36
sS'__subclasshook__'
p37
S'<built-in method __subclasshook__ of type object>'
p38
sS'__repr__'
p39
S"<method-wrapper '__repr__' of exceptions.ValueError object>"
p40
sS'args'
p41
S"('need more than 0 values to unpack',)"
p42
sS'__dict__'
p43
S'{}'
p44
sS'__sizeof__'
p45
S'<built-in method __sizeof__ of exceptions.ValueError object>'
p46
sS'__doc__'
p47
S"'Inappropriate argument value (of correct type).'"
p48
sS'__init__'
p49
S"<method-wrapper '__init__' of exceptions.ValueError object>"
p50
sS'__new__'
p51
S'<built-in method __new__ of type object>'
p52
ssS'evalue'
p53
S'need more than 0 values to unpack'
p54
sS'request'
p55
(dp56
S'function'
p57
S"'index'"
p58
sS'body'
p59
S"<open file '<fdopen>', mode 'w+b'>"
p60
sS'wsgi'
p61
S"<Storage {'start_response': <function <lambda> a...ING': 'gzip,deflate', 'HTTP_KEEP_ALIVE': '115'}}>"
p62
sS'extension'
p63
S"'html'"
p64
sS'vars'
p65
S"<Storage {'flag_redirect': 'n', 'url': 'https://...r', '_formname': 'form_one', 'save_cookie': 'Y'}>"
p66
sS'cid'
p67
S'None'
p68
sS'url'
p69
S'<gluon.html.XML object>'
p70
sg41
S'[]'
p71
sS'controller'
p72
S"'default'"
p73
sS'cookies'
p74
S'<SimpleCookie: headers=\'{"header": "value"}\' ses...\'127.0.0.1-12623d41-fcf4-4c78-9489-ef0b3e87acff\'>'
p75
sS'application'
p76
S"'modify_headers'"
p77
sS'ajax'
p78
S'False'
p79
sS'client'
p80
S"'127.0.0.1'"
p81
sS'env'
p82
S"<Storage {'content_length': '830', 'http_user_ag...te', 'query_string': '', 'wsgi_run_once': False}>"
p83
sS'raw_args'
p84
S'None'
p85
sS'get_vars'
p86
S'<Storage {}>'
p87
sS'folder'
p88
S"'/home/uolter/pycode/web2py_1.90.3/applications/modify_headers/'"
p89
sS'now'
p90
S'datetime.datetime(2011, 1, 22, 19, 42, 26, 679004)'
p91
sS'post_vars'
p92
S"<Storage {'flag_redirect': 'n', 'url': 'https://...r', '_formname': 'form_one', 'save_cookie': 'Y'}>"
p93
ssS'frames'
p94
(lp95
(dp96
S'file'
p97
S'/home/uolter/pycode/web2py_1.90.3/gluon/restricted.py'
p98
sS'dump'
p99
(dp100
S'environment'
p101
S"{'A': <class 'gluon.html.A'>, 'Auth': <class 'gluon.tools.Auth'>, 'B': <class 'gluon.html.B'>, 'BEAUTIFY': <class 'gluon.html.BEAUTIFY'>, 'BODY': <class 'gluon.html.BODY'>, 'BR': <class 'gluon.html.BR'>, 'CENTER': <class 'gluon.html.CENTER'>, 'CLEANUP': <class 'gluon.validators.CLEANUP'>, 'CODE': <class 'gluon.html.CODE'>, 'CRYPT': <class 'gluon.validators.CRYPT'>, ...}"
p102
sS'ccode'
p103
S'<code object <module> at 0x9c09da0, file "/home/.../modify_headers/controllers/default.py", line 12>'
p104
ssS'lnum'
p105
I188
sS'lines'
p106
(dp107
I192
S'        # XXX Show exception in Wing IDE if running in debugger'
p108
sI183
S'        if type(code) == types.CodeType:'
p109
sI184
S'            ccode = code'
p110
sI185
S'        else:'
p111
sI186
S'            ccode = compile2(code,layer)'
p112
sI187
S''
sI188
S'        exec ccode in environment'
p113
sI189
S'    except HTTP:'
p114
sI190
S'        raise'
p115
sI191
S'    except Exception:'
p116
ssS'call'
p117
S"(code='# -*- coding: utf-8 -*- \\n# this file is released...ervice()\\n\\nresponse._vars=response._caller(index)\\n', environment={'A': <class 'gluon.html.A'>, 'Auth': <class 'gluon.tools.Auth'>, 'B': <class 'gluon.html.B'>, 'BEAUTIFY': <class 'gluon.html.BEAUTIFY'>, 'BODY': <class 'gluon.html.BODY'>, 'BR': <class 'gluon.html.BR'>, 'CENTER': <class 'gluon.html.CENTER'>, 'CLEANUP': <class 'gluon.validators.CLEANUP'>, 'CODE': <class 'gluon.html.CODE'>, 'CRYPT': <class 'gluon.validators.CRYPT'>, ...}, layer='/home/uolter/pycode/web2py_1.90.3/applications/modify_headers/controllers/default.py')"
p118
sS'func'
p119
S'restricted'
p120
sa(dp121
g97
S'/home/uolter/pycode/web2py_1.90.3/applications/modify_headers/controllers/default.py'
p122
sg99
(dp123
sg105
I139
sg106
(dp124
I128
S''
sI129
S'def call():'
p125
sI130
S'    """'
p126
sI131
S'    exposes services. for example:'
p127
sI132
S'    http://..../[app]/default/call/jsonrpc'
p128
sI133
S'    decorate with @services.jsonrpc the functions to expose'
p129
sI134
S'    supports xml, json, xmlrpc, jsonrpc, amfrpc, rss, csv'
p130
sI135
S'    """'
p131
sI136
S'    session.forget()'
p132
sI137
S'    return service()'
p133
ssg117
S'()'
p134
sg119
S'<module>'
p135
sa(dp136
g97
S'/home/uolter/pycode/web2py_1.90.3/gluon/globals.py'
p137
sg99
(dp138
S'self'
p139
S'undefined'
p140
sS'f'
S'<function index>'
p141
ssg105
I95
sg106
(dp142
I96
S'        self._view_environment = None'
p143
sI97
S'        self._custom_commit = None'
p144
sI98
S'        self._custom_rollback = None'
p145
sI99
S''
sI90
S"        self.flash = ''           # used by the default view layout"
p146
sI91
S'        self.meta = Storage()     # used by web2py_ajax.html'
p147
sI92
S'        self.menu = []            # used by the default view layout'
p148
sI93
S'        self.files = []           # used by web2py_ajax.html'
p149
sI94
S'        self._vars = None'
p150
sI95
S'        self._caller = lambda f: f()'
p151
ssg117
S'(f=<function index>)'
p152
sg119
S'<lambda>'
p153
sa(dp154
g97
S'/home/uolter/pycode/web2py_1.90.3/applications/modify_headers/controllers/default.py'
p155
sg99
(dp156
S'errno'
p157
g140
sS'global HTTPError'
p158
S"<class 'urllib2.HTTPError'>"
p159
sS'strerror'
p160
g140
ssg105
I46
sg106
(dp161
I41
S''
sI42
S"    if form.accepts(request.vars, formname='form_one'):"
p162
sI43
S"        response.flash = T('Here you go!!')"
p163
sI44
S'        try:'
p164
sI45
S'            form.vars.result=_call_url(form, headers)'
p165
sI46
S'        except HTTPError as (errno, strerror):'
p166
sI47
S'            import pdb; pdb.set_trace()'
p167
sI48
S"            return T('Error calling the url.')"
p168
sI49
S''
sI50
S"        if request.vars.flag_redirect =='y':"
p169
ssg117
S'()'
p170
sg119
S'index'
p171
sasS'pyver'
p172
S'Python 2.6.5: /usr/bin/python'
p173
sS'session'
p174
(dp175
S'headers'
p176
S"{'User-Agent': 'Nokia6230'}"
p177
ssS'etype'
p178
S"<type 'exceptions.ValueError'>"
p179
sS'date'
p180
S'Sat Jan 22 19:42:27 2011'
p181
sS'response'
p182
(dp183
S'status'
p184
S'200'
p185
sg59
S'<cStringIO.StringO object>'
p186
sg74
S"<SimpleCookie: session_id_modify_headers='127.0.0.1-48cbf4c1-637b-4821-9c05-b182df8b477e'>"
p187
sS'_vars'
p188
S'None'
p189
sS'title'
p190
S"'modify_headers'"
p191
sS'session_file'
p192
S"<open file '/home/uolter/pycode/web2py_1.90.3/ap...8cbf4c1-637b-4821-9c05-b182df8b477e', mode 'rb+'>"
p193
sS'flash'
p194
S"<lazyT 'Here you go!!'>"
p195
sS'_custom_rollback'
p196
S'None'
p197
sS'session_id'
p198
S"'127.0.0.1-48cbf4c1-637b-4821-9c05-b182df8b477e'"
p199
sS'headers'
p200
S"<Storage {'Expires': 'Sat, 22 Jan 2011 18:42:26 ...he, must-revalidate, post-check=0, pre-check=0'}>"
p201
sS'meta'
p202
S"<Storage {'keywords': 'web2py, python, framework... 'Web2py Enterprise Framework', 'author': 'you'}>"
p203
sS'session_filename'
p204
S"'/home/uolter/pycode/web2py_1.90.3/applications/m...ns/127.0.0.1-48cbf4c1-637b-4821-9c05-b182df8b477e'"
p205
sS'postprocessing'
p206
S'[]'
p207
sS'menu'
p208
S"[(<lazyT 'Home'>, False, <gluon.html.XML object>, []), (<lazyT 'This App'>, False, <gluon.html.XML object>, [(<lazyT 'Controller'>, False, <gluon.html.XML object>), (<lazyT 'View'>, False, <gluon.html.XML object>), (<lazyT 'Layout'>, False, <gluon.html.XML object>), (<lazyT 'Stylesheet'>, False, <gluon.html.XML object>), (<lazyT 'DB Model'>, False, <gluon.html.XML object>), (<lazyT 'Menu Model'>, False, <gluon.html.XML object>), (<lazyT 'Database'>, False, <gluon.html.XML object>), (<lazyT 'Errors'>, False, <gluon.html.XML object>), (<lazyT 'About'>, False, <gluon.html.XML object>)]), (<lazyT 'Resources'>, False, None, [(<lazyT 'Documentation'>, False, 'http://www.web2py.com/book', [(<lazyT 'Preface'>, False, 'http://www.web2py.com/book/default/chapter/00'), (<lazyT 'Introduction'>, False, 'http://www.web2py.com/book/default/chapter/01'), (<lazyT 'Python'>, False, 'http://www.web2py.com/book/default/chapter/02'), (<lazyT 'Overview'>, False, 'http://www.web2py.com/book/default/chapter/03'), (<lazyT 'The Core'>, False, 'http://www.web2py.com/book/default/chapter/04'), (<lazyT 'The Views'>, False, 'http://www.web2py.com/book/default/chapter/05'), (<lazyT 'Database'>, False, 'http://www.web2py.com/book/default/chapter/06'), (<lazyT 'Forms and Validators'>, False, 'http://www.web2py.com/book/default/chapter/07'), (<lazyT 'Access Control'>, False, 'http://www.web2py.com/book/default/chapter/08'), (<lazyT 'Services'>, False, 'http://www.web2py.com/book/default/chapter/09'), (<lazyT 'Ajax Recipes'>, False, 'http://www.web2py.com/book/default/chapter/10'), (<lazyT 'Deployment Recipes'>, False, 'http://www.web2py.com/book/default/chapter/11'), (<lazyT 'Other Recipes'>, False, 'http://www.web2py.com/book/default/chapter/12'), (<lazyT 'Buy this book'>, False, 'http://stores.lulu.com/web2py')]), (<lazyT 'Community'>, False, None, [(<lazyT 'Groups'>, False, 'http://www.web2py.com/examples/default/usergroups'), (<lazyT 'Twitter'>, False, 'http://twitter.com/web2py'), (<lazyT 'Live chat'>, False, 'http://mibbit.com/?channel=%23web2py&server=irc.mibbit.net'), (<lazyT 'User Voice'>, False, 'http://web2py.uservoice.com/')]), (<lazyT 'Web2py'>, False, 'http://www.web2py.com', [(<lazyT 'Download'>, False, 'http://www.web2py.com/examples/default/download'), (<lazyT 'Support'>, False, 'http://www.web2py.com/examples/default/support'), (<lazyT 'Quick Examples'>, False, 'http://web2py.com/examples/default/examples'), (<lazyT 'FAQ'>, False, 'http://web2py.com/AlterEgo'), (<lazyT 'Free Applications'>, False, 'http://web2py.com/appliances'), (<lazyT 'Plugins'>, False, 'http://web2py.com/plugins'), (<lazyT 'Recipes'>, False, 'http://web2pyslices.com/'), (<lazyT 'Demo'>, False, 'http://web2py.com/demo_admin'), (<lazyT 'Semantic'>, False, 'http://web2py.com/semantic'), (<lazyT 'Layouts'>, False, 'http://web2py.com/layouts'), (<lazyT 'Videos'>, False, 'http://www.web2py.com/examples/default/videos/')])])]"
p209
sS'_view_environment'
p210
S"{'A': <class 'gluon.html.A'>, 'Auth': <class 'gluon.tools.Auth'>, 'B': <class 'gluon.html.B'>, 'BEAUTIFY': <class 'gluon.html.BEAUTIFY'>, 'BODY': <class 'gluon.html.BODY'>, 'BR': <class 'gluon.html.BR'>, 'CENTER': <class 'gluon.html.CENTER'>, 'CLEANUP': <class 'gluon.validators.CLEANUP'>, 'CODE': <class 'gluon.html.CODE'>, 'CRYPT': <class 'gluon.validators.CRYPT'>, ...}"
p211
sS'subtitle'
p212
S"<lazyT 'customize me!'>"
p213
sS'session_id_name'
p214
S"'session_id_modify_headers'"
p215
sS'_custom_commit'
p216
S'None'
p217
sS'_caller'
p218
S'<function <lambda>>'
p219
sS'files'
p220
S'[]'
p221
sS'view'
p222
S"'default/index.html'"
p223
ssS'locals'
p224
(dp225
g200
S"{'User-Agent': 'Nokia6230'}"
p226
sS'form'
p227
S'<gluon.sqlhtml.SQLFORM object>'
p228
sssS'traceback'
p229
S'Traceback (most recent call last):\n  File "/home/uolter/pycode/web2py_1.90.3/gluon/restricted.py", line 188, in restricted\n    exec ccode in environment\n  File "/home/uolter/pycode/web2py_1.90.3/applications/modify_headers/controllers/default.py", line 139, in <module>\n  File "/home/uolter/pycode/web2py_1.90.3/gluon/globals.py", line 95, in <lambda>\n    self._caller = lambda f: f()\n  File "/home/uolter/pycode/web2py_1.90.3/applications/modify_headers/controllers/default.py", line 46, in index\n    except HTTPError as (errno, strerror):\nValueError: need more than 0 values to unpack\n'
p230
s.